target datalayout = "e-m:e-p270:32:32-p271:32:32-p272:64:64-i64:64-i128:128-f80:128-n8:16:32:64-S128"
target triple = "x86_64-pc-linux-gnu"

%struct.DataHeader = type { %struct.MappedData, %struct.UDataInfo }
%struct.MappedData = type { i16, i8, i8 }
%struct.UDataInfo = type { i16, i16, i8, i8, i8, i8, [4 x i8], [4 x i8], [4 x i8] }
%"class.icu_77::MaybeStackArray" = type <{ ptr, i32, i8, [40 x i8], [3 x i8] }>
%"class.icu_77::StringPiece" = type <{ ptr, i32, [4 x i8] }>
%"class.icu_77::UDataPathIterator" = type <{ ptr, ptr, ptr, %"class.icu_77::StringPiece", i32, [4 x i8], %"class.icu_77::CharString", %"class.icu_77::CharString", %"class.icu_77::CharString", i8, [7 x i8] }>
%"class.icu_77::CharString" = type { %"class.icu_77::MaybeStackArray", i32, [4 x i8] }
%struct.UDataMemory = type { ptr, ptr, ptr, i8, ptr, ptr, i32 }

@_ZN6icu_7715MaybeStackArrayIcLi40EED1Ev = weak_odr unnamed_addr alias void (ptr), ptr @_ZN6icu_7715MaybeStackArrayIcLi40EED2Ev
@_ZN6icu_7717UDataPathIteratorC1EPKcS2_S2_S2_aP10UErrorCode = unnamed_addr alias void (ptr, ptr, ptr, ptr, ptr, i8, ptr), ptr @_ZN6icu_7717UDataPathIteratorC2EPKcS2_S2_S2_aP10UErrorCode

; Function Attrs: mustprogress nounwind uwtable
define linkonce_odr void @_ZN6icu_7710CharStringD2Ev(ptr noundef nonnull align 8 dereferenceable(60) %0) unnamed_addr #0 comdat align 2 {
  %2 = alloca ptr, align 8
  store ptr %0, ptr %2, align 8, !tbaa !38
  %3 = load ptr, ptr %2, align 8
  %4 = getelementptr inbounds nuw %"class.icu_77::CharString", ptr %3, i32 0, i32 0
  call void @_ZN6icu_7715MaybeStackArrayIcLi40EED1Ev(ptr noundef nonnull align 8 dereferenceable(53) %4) #12
  ret void
}

; Function Attrs: inlinehint mustprogress nounwind uwtable
define internal noundef signext i8 @_ZL9U_FAILURE10UErrorCode(i32 noundef %0) #2 {
  %2 = alloca i32, align 4
  store i32 %0, ptr %2, align 4, !tbaa !15
  %3 = load i32, ptr %2, align 4, !tbaa !15
  %4 = icmp sgt i32 %3, 0
  %5 = zext i1 %4 to i8
  ret i8 %5
}

; Function Attrs: inlinehint mustprogress nounwind uwtable
define linkonce_odr void @_ZN6icu_7717UDataPathIteratorD2Ev(ptr noundef nonnull align 8 dereferenceable(241) %0) unnamed_addr #2 comdat align 2 {
  %2 = alloca ptr, align 8
  store ptr %0, ptr %2, align 8, !tbaa !23
  %3 = load ptr, ptr %2, align 8
  %4 = getelementptr inbounds nuw %"class.icu_77::UDataPathIterator", ptr %3, i32 0, i32 8
  call void @_ZN6icu_7710CharStringD2Ev(ptr noundef nonnull align 8 dereferenceable(60) %4) #12
  %5 = getelementptr inbounds nuw %"class.icu_77::UDataPathIterator", ptr %3, i32 0, i32 7
  call void @_ZN6icu_7710CharStringD2Ev(ptr noundef nonnull align 8 dereferenceable(60) %5) #12
  %6 = getelementptr inbounds nuw %"class.icu_77::UDataPathIterator", ptr %3, i32 0, i32 6
  call void @_ZN6icu_7710CharStringD2Ev(ptr noundef nonnull align 8 dereferenceable(60) %6) #12
  ret void
}

; Function Attrs: mustprogress uwtable
define internal noundef ptr @_ZL13checkDataItemPK10DataHeaderPFaPvPKcS4_PK9UDataInfoES2_S4_S4_P10UErrorCodeSB_(ptr noundef %0, ptr noundef %1, ptr noundef %2, ptr noundef %3, ptr noundef %4, ptr noundef %5, ptr noundef %6) #1 {
  %8 = alloca ptr, align 8
  %9 = alloca ptr, align 8
  %10 = alloca ptr, align 8
  %11 = alloca ptr, align 8
  %12 = alloca ptr, align 8
  %13 = alloca ptr, align 8
  %14 = alloca ptr, align 8
  %15 = alloca ptr, align 8
  %16 = alloca ptr, align 8
  %17 = alloca i32, align 4
  store ptr %0, ptr %9, align 8, !tbaa !22
  store ptr %1, ptr %10, align 8, !tbaa !22
  store ptr %2, ptr %11, align 8, !tbaa !22
  store ptr %3, ptr %12, align 8, !tbaa !17
  store ptr %4, ptr %13, align 8, !tbaa !17
  store ptr %5, ptr %14, align 8, !tbaa !22
  store ptr %6, ptr %15, align 8, !tbaa !22
  call void @llvm.lifetime.start.p0(i64 8, ptr %16) #12
  store ptr null, ptr %16, align 8, !tbaa !43
  %18 = load ptr, ptr %15, align 8, !tbaa !22
  %19 = load i32, ptr %18, align 4, !tbaa !15
  %20 = call noundef signext i8 @_ZL9U_FAILURE10UErrorCode(i32 noundef %19)
  %21 = icmp ne i8 %20, 0
  br i1 %21, label %22, label %23

22:                                               ; preds = %7
  store ptr null, ptr %8, align 8
  store i32 1, ptr %17, align 4
  br label %65

23:                                               ; preds = %7
  %24 = load ptr, ptr %9, align 8, !tbaa !22
  %25 = getelementptr inbounds nuw %struct.DataHeader, ptr %24, i32 0, i32 0
  %26 = getelementptr inbounds nuw %struct.MappedData, ptr %25, i32 0, i32 1
  %27 = load i8, ptr %26, align 2, !tbaa !86
  %28 = zext i8 %27 to i32
  %29 = icmp eq i32 %28, 218
  br i1 %29, label %30, label %61

30:                                               ; preds = %23
  %31 = load ptr, ptr %9, align 8, !tbaa !22
  %32 = getelementptr inbounds nuw %struct.DataHeader, ptr %31, i32 0, i32 0
  %33 = getelementptr inbounds nuw %struct.MappedData, ptr %32, i32 0, i32 2
  %34 = load i8, ptr %33, align 1, !tbaa !89
  %35 = zext i8 %34 to i32
  %36 = icmp eq i32 %35, 39
  br i1 %36, label %37, label %61

37:                                               ; preds = %30
  %38 = load ptr, ptr %10, align 8, !tbaa !22
  %39 = icmp eq ptr %38, null
  br i1 %39, label %49, label %40

40:                                               ; preds = %37
  %41 = load ptr, ptr %10, align 8, !tbaa !22
  %42 = load ptr, ptr %11, align 8, !tbaa !22
  %43 = load ptr, ptr %12, align 8, !tbaa !17
  %44 = load ptr, ptr %13, align 8, !tbaa !17
  %45 = load ptr, ptr %9, align 8, !tbaa !22
  %46 = getelementptr inbounds nuw %struct.DataHeader, ptr %45, i32 0, i32 1
  %47 = call noundef signext i8 %41(ptr noundef %42, ptr noundef %43, ptr noundef %44, ptr noundef %46)
  %48 = icmp ne i8 %47, 0
  br i1 %48, label %49, label %61

49:                                               ; preds = %40, %37
  %50 = load ptr, ptr %15, align 8, !tbaa !22
  %51 = call ptr @UDataMemory_createNewInstance_77(ptr noundef %50)
  store ptr %51, ptr %16, align 8, !tbaa !43
  %52 = load ptr, ptr %15, align 8, !tbaa !22
  %53 = load i32, ptr %52, align 4, !tbaa !15
  %54 = call noundef signext i8 @_ZL9U_FAILURE10UErrorCode(i32 noundef %53)
  %55 = icmp ne i8 %54, 0
  br i1 %55, label %56, label %57

56:                                               ; preds = %49
  store ptr null, ptr %8, align 8
  store i32 1, ptr %17, align 4
  br label %65

57:                                               ; preds = %49
  %58 = load ptr, ptr %9, align 8, !tbaa !22
  %59 = load ptr, ptr %16, align 8, !tbaa !43
  %60 = getelementptr inbounds nuw %struct.UDataMemory, ptr %59, i32 0, i32 1
  store ptr %58, ptr %60, align 8, !tbaa !45
  br label %63

61:                                               ; preds = %40, %30, %23
  %62 = load ptr, ptr %14, align 8, !tbaa !22
  store i32 3, ptr %62, align 4, !tbaa !15
  br label %63

63:                                               ; preds = %61, %57
  %64 = load ptr, ptr %16, align 8, !tbaa !43
  store ptr %64, ptr %8, align 8
  store i32 1, ptr %17, align 4
  br label %65

65:                                               ; preds = %63, %56, %22
  call void @llvm.lifetime.end.p0(i64 8, ptr %16) #12
  %66 = load ptr, ptr %8, align 8
  ret ptr %66
}

; Function Attrs: mustprogress uwtable
define internal noundef ptr @_ZL25doLoadFromIndividualFilesPKcS0_S0_S0_S0_S0_PFaPvS0_S0_PK9UDataInfoES1_P10UErrorCodeS8_(ptr noundef %0, ptr noundef %1, ptr noundef %2, ptr noundef %3, ptr noundef %4, ptr noundef %5, ptr noundef %6, ptr noundef %7, ptr noundef %8, ptr noundef %9) #1 personality ptr @__gxx_personality_v0 {
  %11 = alloca ptr, align 8
  %12 = alloca ptr, align 8
  %13 = alloca ptr, align 8
  %14 = alloca ptr, align 8
  %15 = alloca ptr, align 8
  %16 = alloca ptr, align 8
  %17 = alloca ptr, align 8
  %18 = alloca ptr, align 8
  %19 = alloca ptr, align 8
  %20 = alloca ptr, align 8
  %21 = alloca ptr, align 8
  %22 = alloca ptr, align 8
  %23 = alloca %struct.UDataMemory, align 8
  %24 = alloca ptr, align 8
  %25 = alloca %"class.icu_77::UDataPathIterator", align 8
  %26 = alloca ptr, align 8
  %27 = alloca i32, align 4
  %28 = alloca i32, align 4
  store ptr %0, ptr %12, align 8, !tbaa !17
  store ptr %1, ptr %13, align 8, !tbaa !17
  store ptr %2, ptr %14, align 8, !tbaa !17
  store ptr %3, ptr %15, align 8, !tbaa !17
  store ptr %4, ptr %16, align 8, !tbaa !17
  store ptr %5, ptr %17, align 8, !tbaa !17
  store ptr %6, ptr %18, align 8, !tbaa !22
  store ptr %7, ptr %19, align 8, !tbaa !22
  store ptr %8, ptr %20, align 8, !tbaa !22
  store ptr %9, ptr %21, align 8, !tbaa !22
  call void @llvm.lifetime.start.p0(i64 8, ptr %22) #12
  call void @llvm.lifetime.start.p0(i64 56, ptr %23) #12
  call void @llvm.lifetime.start.p0(i64 8, ptr %24) #12
  call void @llvm.lifetime.start.p0(i64 248, ptr %25) #12
  %29 = load ptr, ptr %13, align 8, !tbaa !17
  %30 = load ptr, ptr %12, align 8, !tbaa !17
  %31 = load ptr, ptr %15, align 8, !tbaa !17
  %32 = load ptr, ptr %14, align 8, !tbaa !17
  %33 = load ptr, ptr %21, align 8, !tbaa !22
  call void @_ZN6icu_7717UDataPathIteratorC1EPKcS2_S2_S2_aP10UErrorCode(ptr noundef nonnull align 8 dereferenceable(241) %25, ptr noundef %29, ptr noundef %30, ptr noundef %31, ptr noundef %32, i8 noundef signext 0, ptr noundef %33)
  br label %34

34:                                               ; preds = %81, %10
  %35 = load ptr, ptr %21, align 8, !tbaa !22
  %36 = invoke noundef ptr @_ZN6icu_7717UDataPathIterator4nextEP10UErrorCode(ptr noundef nonnull align 8 dereferenceable(241) %25, ptr noundef %35)
          to label %37 unwind label %68

37:                                               ; preds = %34
  store ptr %36, ptr %22, align 8, !tbaa !17
  %38 = icmp ne ptr %36, null
  br i1 %38, label %39, label %82

39:                                               ; preds = %37
  %40 = load ptr, ptr %22, align 8, !tbaa !17
  %41 = load ptr, ptr %21, align 8, !tbaa !22
  %42 = invoke signext i8 @uprv_mapFile_77(ptr noundef %23, ptr noundef %40, ptr noundef %41)
          to label %43 unwind label %68

43:                                               ; preds = %39
  %44 = icmp ne i8 %42, 0
  br i1 %44, label %45, label %81

45:                                               ; preds = %43
  %46 = getelementptr inbounds nuw %struct.UDataMemory, ptr %23, i32 0, i32 1
  %47 = load ptr, ptr %46, align 8, !tbaa !45
  %48 = load ptr, ptr %18, align 8, !tbaa !22
  %49 = load ptr, ptr %19, align 8, !tbaa !22
  %50 = load ptr, ptr %16, align 8, !tbaa !17
  %51 = load ptr, ptr %17, align 8, !tbaa !17
  %52 = load ptr, ptr %20, align 8, !tbaa !22
  %53 = load ptr, ptr %21, align 8, !tbaa !22
  %54 = invoke noundef ptr @_ZL13checkDataItemPK10DataHeaderPFaPvPKcS4_PK9UDataInfoES2_S4_S4_P10UErrorCodeSB_(ptr noundef %47, ptr noundef %48, ptr noundef %49, ptr noundef %50, ptr noundef %51, ptr noundef %52, ptr noundef %53)
          to label %55 unwind label %68

55:                                               ; preds = %45
  store ptr %54, ptr %24, align 8, !tbaa !43
  %56 = load ptr, ptr %24, align 8, !tbaa !43
  %57 = icmp ne ptr %56, null
  br i1 %57, label %58, label %72

58:                                               ; preds = %55
  %59 = getelementptr inbounds nuw %struct.UDataMemory, ptr %23, i32 0, i32 4
  %60 = load ptr, ptr %59, align 8, !tbaa !78
  %61 = load ptr, ptr %24, align 8, !tbaa !43
  %62 = getelementptr inbounds nuw %struct.UDataMemory, ptr %61, i32 0, i32 4
  store ptr %60, ptr %62, align 8, !tbaa !78
  %63 = getelementptr inbounds nuw %struct.UDataMemory, ptr %23, i32 0, i32 5
  %64 = load ptr, ptr %63, align 8, !tbaa !79
  %65 = load ptr, ptr %24, align 8, !tbaa !43
  %66 = getelementptr inbounds nuw %struct.UDataMemory, ptr %65, i32 0, i32 5
  store ptr %64, ptr %66, align 8, !tbaa !79
  %67 = load ptr, ptr %24, align 8, !tbaa !43
  store ptr %67, ptr %11, align 8
  store i32 1, ptr %28, align 4
  br label %83

68:                                               ; preds = %72, %45, %39, %34
  %69 = landingpad { ptr, i32 }
          cleanup
  %70 = extractvalue { ptr, i32 } %69, 0
  store ptr %70, ptr %26, align 8
  %71 = extractvalue { ptr, i32 } %69, 1
  store i32 %71, ptr %27, align 4
  call void @_ZN6icu_7717UDataPathIteratorD2Ev(ptr noundef nonnull align 8 dereferenceable(241) %25) #12
  call void @llvm.lifetime.end.p0(i64 248, ptr %25) #12
  call void @llvm.lifetime.end.p0(i64 8, ptr %24) #12
  call void @llvm.lifetime.end.p0(i64 56, ptr %23) #12
  call void @llvm.lifetime.end.p0(i64 8, ptr %22) #12
  br label %85

72:                                               ; preds = %55
  invoke void @udata_close_77(ptr noundef %23)
          to label %73 unwind label %68

73:                                               ; preds = %72
  %74 = load ptr, ptr %21, align 8, !tbaa !22
  %75 = load i32, ptr %74, align 4, !tbaa !15
  %76 = call noundef signext i8 @_ZL9U_FAILURE10UErrorCode(i32 noundef %75)
  %77 = icmp ne i8 %76, 0
  br i1 %77, label %78, label %79

78:                                               ; preds = %73
  store ptr null, ptr %11, align 8
  store i32 1, ptr %28, align 4
  br label %83

79:                                               ; preds = %73
  %80 = load ptr, ptr %20, align 8, !tbaa !22
  store i32 3, ptr %80, align 4, !tbaa !15
  br label %81

81:                                               ; preds = %79, %43
  br label %34, !llvm.loop !80

82:                                               ; preds = %37
  store ptr null, ptr %11, align 8
  store i32 1, ptr %28, align 4
  br label %83

83:                                               ; preds = %82, %78, %58
  call void @_ZN6icu_7717UDataPathIteratorD2Ev(ptr noundef nonnull align 8 dereferenceable(241) %25) #12
  call void @llvm.lifetime.end.p0(i64 248, ptr %25) #12
  call void @llvm.lifetime.end.p0(i64 8, ptr %24) #12
  call void @llvm.lifetime.end.p0(i64 56, ptr %23) #12
  call void @llvm.lifetime.end.p0(i64 8, ptr %22) #12
  %84 = load ptr, ptr %11, align 8
  ret ptr %84

85:                                               ; preds = %68
  %86 = load ptr, ptr %26, align 8
  %87 = load i32, ptr %27, align 4
  %88 = insertvalue { ptr, i32 } poison, ptr %86, 0
  %89 = insertvalue { ptr, i32 } %88, i32 %87, 1
  resume { ptr, i32 } %89
}