; Function Attrs: mustprogress uwtable
define internal fastcc noundef ptr @_ZL25doLoadFromIndividualFilesPKcS0_S0_S0_S0_S0_PFaPvS0_S0_PK9UDataInfoES1_P10UErrorCodeS8_(ptr noundef %0, ptr noundef %1, ptr noundef %2, ptr noundef %3, ptr noundef %4, ptr noundef nonnull %5, ptr noundef readonly %6, ptr noundef %7, ptr noundef nonnull writeonly captures(none) %8, ptr noundef nonnull %9) unnamed_addr #1 personality ptr @__gxx_personality_v0 {
  %11 = alloca %struct.UDataMemory, align 8
  %12 = alloca %"class.icu_77::UDataPathIterator", align 8
  call void @llvm.lifetime.start.p0(i64 56, ptr nonnull %11) #15
  call void @llvm.lifetime.start.p0(i64 248, ptr nonnull %12) #15
  call void @_ZN6icu_7717UDataPathIteratorC1EPKcS2_S2_S2_aP10UErrorCode(ptr noundef nonnull align 8 dereferenceable(241) %12, ptr noundef %1, ptr noundef %0, ptr noundef %3, ptr noundef %2, i8 noundef signext 0, ptr noundef nonnull %9)
  %13 = getelementptr inbounds nuw i8, ptr %11, i64 8
  %14 = icmp eq ptr %6, null
  br i1 %14, label %.split.us, label %.split

.split.us:                                        ; preds = %10, %.split.us.backedge
  %15 = invoke noundef ptr @_ZN6icu_7717UDataPathIterator4nextEP10UErrorCode(ptr noundef nonnull align 8 dereferenceable(241) %12, ptr noundef nonnull %9)
          to label %16 unwind label %.split31.us

16:                                               ; preds = %.split.us
  %.not.us = icmp eq ptr %15, null
  br i1 %.not.us, label %.loopexit, label %17

17:                                               ; preds = %16
  %18 = invoke signext i8 @uprv_mapFile_77(ptr noundef nonnull %11, ptr noundef nonnull %15, ptr noundef nonnull %9)
          to label %19 unwind label %.split31.us

19:                                               ; preds = %17
  %.not24.us = icmp eq i8 %18, 0
  br i1 %.not24.us, label %.split.us.backedge, label %20

20:                                               ; preds = %19
  %21 = load ptr, ptr %13, align 8, !tbaa !32
  %22 = load i32, ptr %9, align 4, !tbaa !13
  %23 = icmp slt i32 %22, 1
  br i1 %23, label %24, label %_ZL13checkDataItemPK10DataHeaderPFaPvPKcS4_PK9UDataInfoES2_S4_S4_P10UErrorCodeSB_.exit.thread.us

24:                                               ; preds = %20
  %25 = getelementptr inbounds nuw i8, ptr %21, i64 2
  %26 = load i8, ptr %25, align 2, !tbaa !52
  %27 = icmp eq i8 %26, -38
  br i1 %27, label %28, label %34

28:                                               ; preds = %24
  %29 = getelementptr inbounds nuw i8, ptr %21, i64 3
  %30 = load i8, ptr %29, align 1, !tbaa !55
  %31 = icmp eq i8 %30, 39
  br i1 %31, label %32, label %34

32:                                               ; preds = %28
  %33 = invoke ptr @UDataMemory_createNewInstance_77(ptr noundef nonnull %9)
          to label %.noexc27.us unwind label %.split31.us

34:                                               ; preds = %28, %24
  store i32 3, ptr %8, align 4, !tbaa !13
  br label %_ZL13checkDataItemPK10DataHeaderPFaPvPKcS4_PK9UDataInfoES2_S4_S4_P10UErrorCodeSB_.exit.thread.us

.noexc27.us:                                      ; preds = %32
  %35 = load i32, ptr %9, align 4, !tbaa !13
  %36 = icmp slt i32 %35, 1
  br i1 %36, label %.split33.us, label %_ZL13checkDataItemPK10DataHeaderPFaPvPKcS4_PK9UDataInfoES2_S4_S4_P10UErrorCodeSB_.exit.thread.us

_ZL13checkDataItemPK10DataHeaderPFaPvPKcS4_PK9UDataInfoES2_S4_S4_P10UErrorCodeSB_.exit.thread.us: ; preds = %.noexc27.us, %34, %20
  invoke void @udata_close_77(ptr noundef nonnull %11)
          to label %37 unwind label %.split31.us

37:                                               ; preds = %_ZL13checkDataItemPK10DataHeaderPFaPvPKcS4_PK9UDataInfoES2_S4_S4_P10UErrorCodeSB_.exit.thread.us
  %38 = load i32, ptr %9, align 4, !tbaa !13
  %39 = icmp slt i32 %38, 1
  br i1 %39, label %40, label %.loopexit

40:                                               ; preds = %37
  store i32 3, ptr %8, align 4, !tbaa !13
  br label %.split.us.backedge

.split.us.backedge:                               ; preds = %40, %19
  br label %.split.us, !llvm.loop !56

.split31.us:                                      ; preds = %_ZL13checkDataItemPK10DataHeaderPFaPvPKcS4_PK9UDataInfoES2_S4_S4_P10UErrorCodeSB_.exit.thread.us, %32, %17, %.split.us
  %41 = landingpad { ptr, i32 }
          cleanup
  br label %75

.split:                                           ; preds = %10, %.split.backedge
  %42 = invoke noundef ptr @_ZN6icu_7717UDataPathIterator4nextEP10UErrorCode(ptr noundef nonnull align 8 dereferenceable(241) %12, ptr noundef nonnull %9)
          to label %43 unwind label %.split31

43:                                               ; preds = %.split
  %.not = icmp eq ptr %42, null
  br i1 %.not, label %.loopexit, label %44

44:                                               ; preds = %43
  %45 = invoke signext i8 @uprv_mapFile_77(ptr noundef nonnull %11, ptr noundef nonnull %42, ptr noundef nonnull %9)
          to label %46 unwind label %.split31

46:                                               ; preds = %44
  %.not24 = icmp eq i8 %45, 0
  br i1 %.not24, label %.split.backedge, label %47

47:                                               ; preds = %46
  %48 = load ptr, ptr %13, align 8, !tbaa !32
  %49 = load i32, ptr %9, align 4, !tbaa !13
  %50 = icmp slt i32 %49, 1
  br i1 %50, label %51, label %_ZL13checkDataItemPK10DataHeaderPFaPvPKcS4_PK9UDataInfoES2_S4_S4_P10UErrorCodeSB_.exit.thread

51:                                               ; preds = %47
  %52 = getelementptr inbounds nuw i8, ptr %48, i64 2
  %53 = load i8, ptr %52, align 2, !tbaa !52
  %54 = icmp eq i8 %53, -38
  br i1 %54, label %55, label %66

55:                                               ; preds = %51
  %56 = getelementptr inbounds nuw i8, ptr %48, i64 3
  %57 = load i8, ptr %56, align 1, !tbaa !55
  %58 = icmp eq i8 %57, 39
  br i1 %58, label %59, label %66

59:                                               ; preds = %55
  %60 = getelementptr inbounds nuw i8, ptr %48, i64 4
  %61 = invoke noundef signext i8 %6(ptr noundef %7, ptr noundef %4, ptr noundef nonnull %5, ptr noundef nonnull %60)
          to label %.noexc unwind label %.split31

.noexc:                                           ; preds = %59
  %.not18.i = icmp eq i8 %61, 0
  br i1 %.not18.i, label %66, label %62

62:                                               ; preds = %.noexc
  %63 = invoke ptr @UDataMemory_createNewInstance_77(ptr noundef nonnull %9)
          to label %.noexc27 unwind label %.split31

.noexc27:                                         ; preds = %62
  %64 = load i32, ptr %9, align 4, !tbaa !13
  %65 = icmp slt i32 %64, 1
  br i1 %65, label %.split33.us, label %_ZL13checkDataItemPK10DataHeaderPFaPvPKcS4_PK9UDataInfoES2_S4_S4_P10UErrorCodeSB_.exit.thread

66:                                               ; preds = %.noexc, %55, %51
  store i32 3, ptr %8, align 4, !tbaa !13
  br label %_ZL13checkDataItemPK10DataHeaderPFaPvPKcS4_PK9UDataInfoES2_S4_S4_P10UErrorCodeSB_.exit.thread

.split33.us:                                      ; preds = %.noexc27, %.noexc27.us
  %.lcssa41.sink = phi ptr [ %33, %.noexc27.us ], [ %63, %.noexc27 ]
  %.lcssa40.sink = phi ptr [ %21, %.noexc27.us ], [ %48, %.noexc27 ]
  %67 = getelementptr inbounds nuw i8, ptr %.lcssa41.sink, i64 8
  store ptr %.lcssa40.sink, ptr %67, align 8, !tbaa !32
  %68 = getelementptr inbounds nuw i8, ptr %11, i64 32
  %69 = load ptr, ptr %68, align 8, !tbaa !57
  %70 = getelementptr inbounds nuw i8, ptr %.lcssa41.sink, i64 32
  store ptr %69, ptr %70, align 8, !tbaa !57
  %71 = getelementptr inbounds nuw i8, ptr %11, i64 40
  %72 = load ptr, ptr %71, align 8, !tbaa !58
  %73 = getelementptr inbounds nuw i8, ptr %.lcssa41.sink, i64 40
  store ptr %72, ptr %73, align 8, !tbaa !58
  br label %.loopexit

.split31:                                         ; preds = %62, %59, %_ZL13checkDataItemPK10DataHeaderPFaPvPKcS4_PK9UDataInfoES2_S4_S4_P10UErrorCodeSB_.exit.thread, %44, %.split
  %74 = landingpad { ptr, i32 }
          cleanup
  br label %75

75:                                               ; preds = %.split31.us, %.split31
  %.us-phi = phi { ptr, i32 } [ %74, %.split31 ], [ %41, %.split31.us ]
  %76 = getelementptr inbounds nuw i8, ptr %12, i64 176
  call void @_ZN6icu_7715MaybeStackArrayIcLi40EED1Ev(ptr noundef nonnull align 8 dereferenceable(60) %76) #15
  %77 = getelementptr inbounds nuw i8, ptr %12, i64 112
  call void @_ZN6icu_7715MaybeStackArrayIcLi40EED1Ev(ptr noundef nonnull align 8 dereferenceable(60) %77) #15
  %78 = getelementptr inbounds nuw i8, ptr %12, i64 48
  call void @_ZN6icu_7715MaybeStackArrayIcLi40EED1Ev(ptr noundef nonnull align 8 dereferenceable(60) %78) #15
  call void @llvm.lifetime.end.p0(i64 248, ptr nonnull %12) #15
  call void @llvm.lifetime.end.p0(i64 56, ptr nonnull %11) #15
  resume { ptr, i32 } %.us-phi

_ZL13checkDataItemPK10DataHeaderPFaPvPKcS4_PK9UDataInfoES2_S4_S4_P10UErrorCodeSB_.exit.thread: ; preds = %66, %.noexc27, %47
  invoke void @udata_close_77(ptr noundef nonnull %11)
          to label %79 unwind label %.split31

79:                                               ; preds = %_ZL13checkDataItemPK10DataHeaderPFaPvPKcS4_PK9UDataInfoES2_S4_S4_P10UErrorCodeSB_.exit.thread
  %80 = load i32, ptr %9, align 4, !tbaa !13
  %81 = icmp slt i32 %80, 1
  br i1 %81, label %82, label %.loopexit

82:                                               ; preds = %79
  store i32 3, ptr %8, align 4, !tbaa !13
  br label %.split.backedge

.split.backedge:                                  ; preds = %82, %46
  br label %.split, !llvm.loop !56

.loopexit:                                        ; preds = %79, %43, %37, %16, %.split33.us
  %.0 = phi ptr [ %.lcssa41.sink, %.split33.us ], [ null, %16 ], [ null, %37 ], [ null, %43 ], [ null, %79 ]
  %83 = getelementptr inbounds nuw i8, ptr %12, i64 176
  call void @_ZN6icu_7715MaybeStackArrayIcLi40EED1Ev(ptr noundef nonnull align 8 dereferenceable(60) %83) #15
  %84 = getelementptr inbounds nuw i8, ptr %12, i64 112
  call void @_ZN6icu_7715MaybeStackArrayIcLi40EED1Ev(ptr noundef nonnull align 8 dereferenceable(60) %84) #15
  %85 = getelementptr inbounds nuw i8, ptr %12, i64 48
  call void @_ZN6icu_7715MaybeStackArrayIcLi40EED1Ev(ptr noundef nonnull align 8 dereferenceable(60) %85) #15
  call void @llvm.lifetime.end.p0(i64 248, ptr nonnull %12) #15
  call void @llvm.lifetime.end.p0(i64 56, ptr nonnull %11) #15
  ret ptr %.0
}